; ModuleID = '32/610.c'
source_filename = "32/610.c"
target datalayout = "e-m:e-p270:32:32-p271:32:32-p272:64:64-i64:64-f80:128-n8:16:32:64-S128"
target triple = "x86_64-pc-linux-gnu"

@.str = private unnamed_addr constant [3 x i8] c"%d\00", align 1
@.str.1 = private unnamed_addr constant [3 x i8] c"%s\00", align 1
@.str.2 = private unnamed_addr constant [4 x i8] c"%s\0A\00", align 1

; Function Attrs: noinline nounwind uwtable
define dso_local void @main() #0 {
  %1 = alloca i32, align 4
  %2 = alloca i32, align 4
  %3 = alloca i32, align 4
  %4 = alloca i32, align 4
  %5 = alloca [60 x i32], align 16
  %6 = alloca [30 x i32], align 16
  %7 = alloca [30 x [100 x i8]], align 16
  %8 = call i32 (i8*, ...) @__isoc99_scanf(i8* getelementptr inbounds ([3 x i8], [3 x i8]* @.str, i64 0, i64 0), i32* %1)
  store i32 0, i32* %2, align 4
  br label %9

9:                                                ; preds = %20, %0
  %10 = load i32, i32* %2, align 4
  %11 = load i32, i32* %1, align 4
  %12 = mul nsw i32 2, %11
  %13 = icmp slt i32 %10, %12
  br i1 %13, label %14, label %23

14:                                               ; preds = %9
  %15 = load i32, i32* %2, align 4
  %16 = sext i32 %15 to i64
  %17 = getelementptr inbounds [30 x [100 x i8]], [30 x [100 x i8]]* %7, i64 0, i64 %16
  %18 = getelementptr inbounds [100 x i8], [100 x i8]* %17, i64 0, i64 0
  %19 = call i32 (i8*, ...) @__isoc99_scanf(i8* getelementptr inbounds ([3 x i8], [3 x i8]* @.str.1, i64 0, i64 0), i8* %18)
  br label %20

20:                                               ; preds = %14
  %21 = load i32, i32* %2, align 4
  %22 = add nsw i32 %21, 1
  store i32 %22, i32* %2, align 4
  br label %9

23:                                               ; preds = %9
  store i32 0, i32* %2, align 4
  br label %24

24:                                               ; preds = %39, %23
  %25 = load i32, i32* %2, align 4
  %26 = load i32, i32* %1, align 4
  %27 = mul nsw i32 2, %26
  %28 = icmp slt i32 %25, %27
  br i1 %28, label %29, label %42

29:                                               ; preds = %24
  %30 = load i32, i32* %2, align 4
  %31 = sext i32 %30 to i64
  %32 = getelementptr inbounds [30 x [100 x i8]], [30 x [100 x i8]]* %7, i64 0, i64 %31
  %33 = getelementptr inbounds [100 x i8], [100 x i8]* %32, i64 0, i64 0
  %34 = call i64 @strlen(i8* %33) #3
  %35 = trunc i64 %34 to i32
  %36 = load i32, i32* %2, align 4
  %37 = sext i32 %36 to i64
  %38 = getelementptr inbounds [60 x i32], [60 x i32]* %5, i64 0, i64 %37
  store i32 %35, i32* %38, align 4
  br label %39

39:                                               ; preds = %29
  %40 = load i32, i32* %2, align 4
  %41 = add nsw i32 %40, 1
  store i32 %41, i32* %2, align 4
  br label %24

42:                                               ; preds = %24
  store i32 0, i32* %2, align 4
  br label %43

43:                                               ; preds = %63, %42
  %44 = load i32, i32* %2, align 4
  %45 = load i32, i32* %1, align 4
  %46 = icmp slt i32 %44, %45
  br i1 %46, label %47, label %66

47:                                               ; preds = %43
  %48 = load i32, i32* %2, align 4
  %49 = mul nsw i32 2, %48
  %50 = sext i32 %49 to i64
  %51 = getelementptr inbounds [60 x i32], [60 x i32]* %5, i64 0, i64 %50
  %52 = load i32, i32* %51, align 4
  %53 = load i32, i32* %2, align 4
  %54 = mul nsw i32 2, %53
  %55 = add nsw i32 %54, 1
  %56 = sext i32 %55 to i64
  %57 = getelementptr inbounds [60 x i32], [60 x i32]* %5, i64 0, i64 %56
  %58 = load i32, i32* %57, align 4
  %59 = sub nsw i32 %52, %58
  %60 = load i32, i32* %2, align 4
  %61 = sext i32 %60 to i64
  %62 = getelementptr inbounds [30 x i32], [30 x i32]* %6, i64 0, i64 %61
  store i32 %59, i32* %62, align 4
  br label %63

63:                                               ; preds = %47
  %64 = load i32, i32* %2, align 4
  %65 = add nsw i32 %64, 1
  store i32 %65, i32* %2, align 4
  br label %43

66:                                               ; preds = %43
  store i32 0, i32* %2, align 4
  br label %67

67:                                               ; preds = %224, %66
  %68 = load i32, i32* %2, align 4
  %69 = load i32, i32* %1, align 4
  %70 = icmp slt i32 %68, %69
  br i1 %70, label %71, label %227

71:                                               ; preds = %67
  %72 = load i32, i32* %2, align 4
  %73 = mul nsw i32 2, %72
  %74 = add nsw i32 %73, 1
  %75 = sext i32 %74 to i64
  %76 = getelementptr inbounds [60 x i32], [60 x i32]* %5, i64 0, i64 %75
  %77 = load i32, i32* %76, align 4
  %78 = sub nsw i32 %77, 1
  store i32 %78, i32* %3, align 4
  br label %79

79:                                               ; preds = %220, %71
  %80 = load i32, i32* %3, align 4
  %81 = icmp sge i32 %80, 0
  br i1 %81, label %82, label %223

82:                                               ; preds = %79
  %83 = load i32, i32* %2, align 4
  %84 = mul nsw i32 2, %83
  %85 = add nsw i32 %84, 1
  %86 = sext i32 %85 to i64
  %87 = getelementptr inbounds [30 x [100 x i8]], [30 x [100 x i8]]* %7, i64 0, i64 %86
  %88 = load i32, i32* %3, align 4
  %89 = sext i32 %88 to i64
  %90 = getelementptr inbounds [100 x i8], [100 x i8]* %87, i64 0, i64 %89
  %91 = load i8, i8* %90, align 1
  %92 = sext i8 %91 to i32
  %93 = load i32, i32* %2, align 4
  %94 = mul nsw i32 2, %93
  %95 = sext i32 %94 to i64
  %96 = getelementptr inbounds [30 x [100 x i8]], [30 x [100 x i8]]* %7, i64 0, i64 %95
  %97 = load i32, i32* %3, align 4
  %98 = load i32, i32* %2, align 4
  %99 = sext i32 %98 to i64
  %100 = getelementptr inbounds [30 x i32], [30 x i32]* %6, i64 0, i64 %99
  %101 = load i32, i32* %100, align 4
  %102 = add nsw i32 %97, %101
  %103 = sext i32 %102 to i64
  %104 = getelementptr inbounds [100 x i8], [100 x i8]* %96, i64 0, i64 %103
  %105 = load i8, i8* %104, align 1
  %106 = sext i8 %105 to i32
  %107 = icmp sle i32 %92, %106
  br i1 %107, label %108, label %148

108:                                              ; preds = %82
  %109 = load i32, i32* %2, align 4
  %110 = mul nsw i32 2, %109
  %111 = sext i32 %110 to i64
  %112 = getelementptr inbounds [30 x [100 x i8]], [30 x [100 x i8]]* %7, i64 0, i64 %111
  %113 = load i32, i32* %3, align 4
  %114 = load i32, i32* %2, align 4
  %115 = sext i32 %114 to i64
  %116 = getelementptr inbounds [30 x i32], [30 x i32]* %6, i64 0, i64 %115
  %117 = load i32, i32* %116, align 4
  %118 = add nsw i32 %113, %117
  %119 = sext i32 %118 to i64
  %120 = getelementptr inbounds [100 x i8], [100 x i8]* %112, i64 0, i64 %119
  %121 = load i8, i8* %120, align 1
  %122 = sext i8 %121 to i32
  %123 = load i32, i32* %2, align 4
  %124 = mul nsw i32 2, %123
  %125 = add nsw i32 %124, 1
  %126 = sext i32 %125 to i64
  %127 = getelementptr inbounds [30 x [100 x i8]], [30 x [100 x i8]]* %7, i64 0, i64 %126
  %128 = load i32, i32* %3, align 4
  %129 = sext i32 %128 to i64
  %130 = getelementptr inbounds [100 x i8], [100 x i8]* %127, i64 0, i64 %129
  %131 = load i8, i8* %130, align 1
  %132 = sext i8 %131 to i32
  %133 = sub nsw i32 %122, %132
  %134 = add nsw i32 %133, 48
  %135 = trunc i32 %134 to i8
  %136 = load i32, i32* %2, align 4
  %137 = mul nsw i32 2, %136
  %138 = sext i32 %137 to i64
  %139 = getelementptr inbounds [30 x [100 x i8]], [30 x [100 x i8]]* %7, i64 0, i64 %138
  %140 = load i32, i32* %3, align 4
  %141 = load i32, i32* %2, align 4
  %142 = sext i32 %141 to i64
  %143 = getelementptr inbounds [30 x i32], [30 x i32]* %6, i64 0, i64 %142
  %144 = load i32, i32* %143, align 4
  %145 = add nsw i32 %140, %144
  %146 = sext i32 %145 to i64
  %147 = getelementptr inbounds [100 x i8], [100 x i8]* %139, i64 0, i64 %146
  store i8 %135, i8* %147, align 1
  br label %219

148:                                              ; preds = %82
  %149 = load i32, i32* %2, align 4
  %150 = mul nsw i32 2, %149
  %151 = sext i32 %150 to i64
  %152 = getelementptr inbounds [30 x [100 x i8]], [30 x [100 x i8]]* %7, i64 0, i64 %151
  %153 = load i32, i32* %3, align 4
  %154 = sub nsw i32 %153, 1
  %155 = load i32, i32* %2, align 4
  %156 = sext i32 %155 to i64
  %157 = getelementptr inbounds [30 x i32], [30 x i32]* %6, i64 0, i64 %156
  %158 = load i32, i32* %157, align 4
  %159 = add nsw i32 %154, %158
  %160 = sext i32 %159 to i64
  %161 = getelementptr inbounds [100 x i8], [100 x i8]* %152, i64 0, i64 %160
  %162 = load i8, i8* %161, align 1
  %163 = sext i8 %162 to i32
  %164 = sub nsw i32 %163, 1
  %165 = trunc i32 %164 to i8
  %166 = load i32, i32* %2, align 4
  %167 = mul nsw i32 2, %166
  %168 = sext i32 %167 to i64
  %169 = getelementptr inbounds [30 x [100 x i8]], [30 x [100 x i8]]* %7, i64 0, i64 %168
  %170 = load i32, i32* %3, align 4
  %171 = sub nsw i32 %170, 1
  %172 = load i32, i32* %2, align 4
  %173 = sext i32 %172 to i64
  %174 = getelementptr inbounds [30 x i32], [30 x i32]* %6, i64 0, i64 %173
  %175 = load i32, i32* %174, align 4
  %176 = add nsw i32 %171, %175
  %177 = sext i32 %176 to i64
  %178 = getelementptr inbounds [100 x i8], [100 x i8]* %169, i64 0, i64 %177
  store i8 %165, i8* %178, align 1
  %179 = load i32, i32* %2, align 4
  %180 = mul nsw i32 2, %179
  %181 = sext i32 %180 to i64
  %182 = getelementptr inbounds [30 x [100 x i8]], [30 x [100 x i8]]* %7, i64 0, i64 %181
  %183 = load i32, i32* %3, align 4
  %184 = load i32, i32* %2, align 4
  %185 = sext i32 %184 to i64
  %186 = getelementptr inbounds [30 x i32], [30 x i32]* %6, i64 0, i64 %185
  %187 = load i32, i32* %186, align 4
  %188 = add nsw i32 %183, %187
  %189 = sext i32 %188 to i64
  %190 = getelementptr inbounds [100 x i8], [100 x i8]* %182, i64 0, i64 %189
  %191 = load i8, i8* %190, align 1
  %192 = sext i8 %191 to i32
  %193 = load i32, i32* %2, align 4
  %194 = mul nsw i32 2, %193
  %195 = add nsw i32 %194, 1
  %196 = sext i32 %195 to i64
  %197 = getelementptr inbounds [30 x [100 x i8]], [30 x [100 x i8]]* %7, i64 0, i64 %196
  %198 = load i32, i32* %3, align 4
  %199 = sext i32 %198 to i64
  %200 = getelementptr inbounds [100 x i8], [100 x i8]* %197, i64 0, i64 %199
  %201 = load i8, i8* %200, align 1
  %202 = sext i8 %201 to i32
  %203 = sub nsw i32 %192, %202
  %204 = add nsw i32 %203, 10
  %205 = add nsw i32 %204, 48
  %206 = trunc i32 %205 to i8
  %207 = load i32, i32* %2, align 4
  %208 = mul nsw i32 2, %207
  %209 = sext i32 %208 to i64
  %210 = getelementptr inbounds [30 x [100 x i8]], [30 x [100 x i8]]* %7, i64 0, i64 %209
  %211 = load i32, i32* %3, align 4
  %212 = load i32, i32* %2, align 4
  %213 = sext i32 %212 to i64
  %214 = getelementptr inbounds [30 x i32], [30 x i32]* %6, i64 0, i64 %213
  %215 = load i32, i32* %214, align 4
  %216 = add nsw i32 %211, %215
  %217 = sext i32 %216 to i64
  %218 = getelementptr inbounds [100 x i8], [100 x i8]* %210, i64 0, i64 %217
  store i8 %206, i8* %218, align 1
  br label %219

219:                                              ; preds = %148, %108
  br label %220

220:                                              ; preds = %219
  %221 = load i32, i32* %3, align 4
  %222 = add nsw i32 %221, -1
  store i32 %222, i32* %3, align 4
  br label %79

223:                                              ; preds = %79
  br label %224

224:                                              ; preds = %223
  %225 = load i32, i32* %2, align 4
  %226 = add nsw i32 %225, 1
  store i32 %226, i32* %2, align 4
  br label %67

227:                                              ; preds = %67
  store i32 0, i32* %2, align 4
  br label %228

228:                                              ; preds = %239, %227
  %229 = load i32, i32* %2, align 4
  %230 = load i32, i32* %1, align 4
  %231 = icmp slt i32 %229, %230
  br i1 %231, label %232, label %242

232:                                              ; preds = %228
  %233 = load i32, i32* %2, align 4
  %234 = mul nsw i32 2, %233
  %235 = sext i32 %234 to i64
  %236 = getelementptr inbounds [30 x [100 x i8]], [30 x [100 x i8]]* %7, i64 0, i64 %235
  %237 = getelementptr inbounds [100 x i8], [100 x i8]* %236, i64 0, i64 0
  %238 = call i32 (i8*, ...) @printf(i8* getelementptr inbounds ([4 x i8], [4 x i8]* @.str.2, i64 0, i64 0), i8* %237)
  br label %239

239:                                              ; preds = %232
  %240 = load i32, i32* %2, align 4
  %241 = add nsw i32 %240, 1
  store i32 %241, i32* %2, align 4
  br label %228

242:                                              ; preds = %228
  ret void
}

declare dso_local i32 @__isoc99_scanf(i8*, ...) #1

; Function Attrs: nounwind readonly
declare dso_local i64 @strlen(i8*) #2

declare dso_local i32 @printf(i8*, ...) #1


!llvm.module.flags = !{!0}
!llvm.ident = !{!1}

!0 = !{i32 1, !"wchar_size", i32 4}
!1 = !{!"clang version 10.0.0-4ubuntu1 "}
